; Function Attrs: mustprogress uwtable
define hidden noundef zeroext i1 @_ZN3sls12arith_plugin9propagateEv(ptr noundef nonnull align 8 captures(none) dereferenceable(64) %0) unnamed_addr #3 align 2 personality ptr @__gxx_personality_v0 {
  %2 = getelementptr inbounds nuw i8, ptr %0, i64 32
  %3 = load ptr, ptr %2, align 8, !tbaa !48
  %.not13 = icmp eq ptr %3, null
  br i1 %.not13, label %41, label %4

4:                                                ; preds = %1
  %5 = load ptr, ptr %3, align 8, !tbaa !3
  %6 = getelementptr inbounds nuw i8, ptr %5, i64 64
  %7 = load ptr, ptr %6, align 8
  %8 = invoke noundef zeroext i1 %7(ptr noundef nonnull align 8 dereferenceable(672) %3)
          to label %48 unwind label %9

9:                                                ; preds = %4
  %10 = landingpad { ptr, i32 }
          catch ptr @_ZTI18overflow_exception
  %11 = extractvalue { ptr, i32 } %10, 1
  %12 = tail call i32 @llvm.eh.typeid.for.p0(ptr nonnull @_ZTI18overflow_exception) #11
  %13 = icmp eq i32 %11, %12
  br i1 %13, label %14, label %49

14:                                               ; preds = %9
  %15 = extractvalue { ptr, i32 } %10, 0
  %16 = tail call ptr @__cxa_begin_catch(ptr %15) #11
  %17 = invoke noundef i32 @_Z19get_verbosity_levelv()
          to label %18 unwind label %29

18:                                               ; preds = %14
  %.not = icmp eq i32 %17, 0
  br i1 %.not, label %_ZStlsISt11char_traitsIcEERSt13basic_ostreamIcT_ES5_PKc.exit12, label %19

19:                                               ; preds = %18
  %20 = invoke noundef zeroext i1 @_Z11is_threadedv()
          to label %21 unwind label %29

21:                                               ; preds = %19
  br i1 %20, label %22, label %31

22:                                               ; preds = %21
  invoke void @_Z12verbose_lockv()
          to label %23 unwind label %29

23:                                               ; preds = %22
  %24 = invoke noundef nonnull align 8 dereferenceable(8) ptr @_Z14verbose_streamv()
          to label %25 unwind label %29

25:                                               ; preds = %23
  %26 = invoke noundef nonnull align 8 dereferenceable(8) ptr @_ZSt16__ostream_insertIcSt11char_traitsIcEERSt13basic_ostreamIT_T0_ES6_PKS3_l(ptr noundef nonnull align 8 dereferenceable(8) %24, ptr noundef nonnull @.str, i64 noundef 24)
          to label %_ZStlsISt11char_traitsIcEERSt13basic_ostreamIcT_ES5_PKc.exit unwind label %29

_ZStlsISt11char_traitsIcEERSt13basic_ostreamIcT_ES5_PKc.exit: ; preds = %25
  %27 = invoke noundef nonnull align 8 dereferenceable(8) ptr @_ZSt16__ostream_insertIcSt11char_traitsIcEERSt13basic_ostreamIT_T0_ES6_PKS3_l(ptr noundef nonnull align 8 dereferenceable(8) %24, ptr noundef nonnull @.str.8, i64 noundef 11)
          to label %_ZStlsISt11char_traitsIcEERSt13basic_ostreamIcT_ES5_PKc.exit8 unwind label %29

_ZStlsISt11char_traitsIcEERSt13basic_ostreamIcT_ES5_PKc.exit8: ; preds = %_ZStlsISt11char_traitsIcEERSt13basic_ostreamIcT_ES5_PKc.exit
  %28 = invoke noundef nonnull align 8 dereferenceable(8) ptr @_ZSt16__ostream_insertIcSt11char_traitsIcEERSt13basic_ostreamIT_T0_ES6_PKS3_l(ptr noundef nonnull align 8 dereferenceable(8) %24, ptr noundef nonnull @.str.2, i64 noundef 1)
          to label %_ZStlsISt11char_traitsIcEERSt13basic_ostreamIcT_ES5_PKc.exit9 unwind label %29

_ZStlsISt11char_traitsIcEERSt13basic_ostreamIcT_ES5_PKc.exit9: ; preds = %_ZStlsISt11char_traitsIcEERSt13basic_ostreamIcT_ES5_PKc.exit8
  invoke void @_Z14verbose_unlockv()
          to label %_ZStlsISt11char_traitsIcEERSt13basic_ostreamIcT_ES5_PKc.exit12 unwind label %29

29:                                               ; preds = %38, %_ZStlsISt11char_traitsIcEERSt13basic_ostreamIcT_ES5_PKc.exit11, %_ZStlsISt11char_traitsIcEERSt13basic_ostreamIcT_ES5_PKc.exit10, %33, %_ZStlsISt11char_traitsIcEERSt13basic_ostreamIcT_ES5_PKc.exit8, %_ZStlsISt11char_traitsIcEERSt13basic_ostreamIcT_ES5_PKc.exit, %25, %31, %_ZStlsISt11char_traitsIcEERSt13basic_ostreamIcT_ES5_PKc.exit9, %23, %22, %19, %14
  %30 = landingpad { ptr, i32 }
          cleanup
  invoke void @__cxa_end_catch()
          to label %49 unwind label %50

31:                                               ; preds = %21
  %32 = invoke noundef nonnull align 8 dereferenceable(8) ptr @_Z14verbose_streamv()
          to label %33 unwind label %29

33:                                               ; preds = %31
  %34 = invoke noundef nonnull align 8 dereferenceable(8) ptr @_ZSt16__ostream_insertIcSt11char_traitsIcEERSt13basic_ostreamIT_T0_ES6_PKS3_l(ptr noundef nonnull align 8 dereferenceable(8) %32, ptr noundef nonnull @.str, i64 noundef 24)
          to label %_ZStlsISt11char_traitsIcEERSt13basic_ostreamIcT_ES5_PKc.exit10 unwind label %29

_ZStlsISt11char_traitsIcEERSt13basic_ostreamIcT_ES5_PKc.exit10: ; preds = %33
  %35 = invoke noundef nonnull align 8 dereferenceable(8) ptr @_ZSt16__ostream_insertIcSt11char_traitsIcEERSt13basic_ostreamIT_T0_ES6_PKS3_l(ptr noundef nonnull align 8 dereferenceable(8) %32, ptr noundef nonnull @.str.8, i64 noundef 11)
          to label %_ZStlsISt11char_traitsIcEERSt13basic_ostreamIcT_ES5_PKc.exit11 unwind label %29

_ZStlsISt11char_traitsIcEERSt13basic_ostreamIcT_ES5_PKc.exit11: ; preds = %_ZStlsISt11char_traitsIcEERSt13basic_ostreamIcT_ES5_PKc.exit10
  %36 = invoke noundef nonnull align 8 dereferenceable(8) ptr @_ZSt16__ostream_insertIcSt11char_traitsIcEERSt13basic_ostreamIT_T0_ES6_PKS3_l(ptr noundef nonnull align 8 dereferenceable(8) %32, ptr noundef nonnull @.str.2, i64 noundef 1)
          to label %_ZStlsISt11char_traitsIcEERSt13basic_ostreamIcT_ES5_PKc.exit12 unwind label %29

_ZStlsISt11char_traitsIcEERSt13basic_ostreamIcT_ES5_PKc.exit12: ; preds = %_ZStlsISt11char_traitsIcEERSt13basic_ostreamIcT_ES5_PKc.exit11, %_ZStlsISt11char_traitsIcEERSt13basic_ostreamIcT_ES5_PKc.exit9, %18
  %37 = load ptr, ptr %2, align 8, !tbaa !48
  %.not.i.i = icmp eq ptr %37, null
  br i1 %.not.i.i, label %_ZN3sls12arith_plugin11init_backupEv.exit, label %38

38:                                               ; preds = %_ZStlsISt11char_traitsIcEERSt13basic_ostreamIcT_ES5_PKc.exit12
  %39 = load ptr, ptr %37, align 8, !tbaa !3
  %40 = load ptr, ptr %39, align 8
  tail call void %40(ptr noundef nonnull align 8 dereferenceable(672) %37) #11
  invoke void @_ZN6memory10deallocateEPv(ptr noundef nonnull %37)
          to label %.noexc unwind label %29

.noexc:                                           ; preds = %38
  store ptr null, ptr %2, align 8, !tbaa !48
  br label %_ZN3sls12arith_plugin11init_backupEv.exit

_ZN3sls12arith_plugin11init_backupEv.exit:        ; preds = %.noexc, %_ZStlsISt11char_traitsIcEERSt13basic_ostreamIcT_ES5_PKc.exit12
  tail call void @__cxa_end_catch()
  br label %41

41:                                               ; preds = %_ZN3sls12arith_plugin11init_backupEv.exit, %1
  %42 = getelementptr inbounds nuw i8, ptr %0, i64 40
  %43 = load ptr, ptr %42, align 8, !tbaa !51
  %44 = load ptr, ptr %43, align 8, !tbaa !3
  %45 = getelementptr inbounds nuw i8, ptr %44, i64 64
  %46 = load ptr, ptr %45, align 8
  %47 = tail call noundef zeroext i1 %46(ptr noundef nonnull align 8 dereferenceable(792) %43)
  br label %48

48:                                               ; preds = %4, %41
  %.0 = phi i1 [ %47, %41 ], [ %8, %4 ]
  ret i1 %.0

49:                                               ; preds = %29, %9
  %.merged = phi { ptr, i32 } [ %10, %9 ], [ %30, %29 ]
  resume { ptr, i32 } %.merged

50:                                               ; preds = %29
  %51 = landingpad { ptr, i32 }
          catch ptr null
  %52 = extractvalue { ptr, i32 } %51, 0
  tail call void @__clang_call_terminate(ptr %52) #12
  unreachable
}